; Function Attrs: nofree norecurse nosync nounwind memory(read, inaccessiblemem: none) uwtable
define range(i32 0, -2147483648) i32 @Sbl_ManComputeDelay(ptr noundef readonly captures(none) %0, i32 noundef %1, ptr noundef readonly captures(none) %2) local_unnamed_addr #4 {
  %4 = getelementptr i8, ptr %2, i64 4
  %.val = load i32, ptr %4, align 4
  %5 = icmp sgt i32 %.val, 0
  br i1 %5, label %.lr.ph, label %.critedge

.lr.ph:                                           ; preds = %3
  %6 = getelementptr i8, ptr %2, i64 8
  %.val10 = load ptr, ptr %6, align 8
  %7 = getelementptr inbounds nuw i8, ptr %0, i64 152
  %8 = load ptr, ptr %7, align 8
  %9 = getelementptr i8, ptr %8, i64 8
  %.val9 = load ptr, ptr %9, align 8
  %wide.trip.count = zext nneg i32 %.val to i64
  br label %10

10:                                               ; preds = %.lr.ph, %10
  %indvars.iv = phi i64 [ 0, %.lr.ph ], [ %indvars.iv.next, %10 ]
  %.012 = phi i32 [ 0, %.lr.ph ], [ %17, %10 ]
  %11 = getelementptr inbounds nuw i32, ptr %.val10, i64 %indvars.iv
  %12 = load i32, ptr %11, align 4
  %13 = sext i32 %12 to i64
  %14 = getelementptr inbounds i32, ptr %.val9, i64 %13
  %15 = load i32, ptr %14, align 4
  %16 = add nsw i32 %15, 1
  %17 = tail call noundef i32 @llvm.smax.i32(i32 %.012, i32 %16)
  %indvars.iv.next = add nuw nsw i64 %indvars.iv, 1
  %exitcond.not = icmp eq i64 %indvars.iv.next, %wide.trip.count
  br i1 %exitcond.not, label %.critedge, label %10, !llvm.loop !14

.critedge:                                        ; preds = %10, %3
  %.0.lcssa = phi i32 [ 0, %3 ], [ %17, %10 ]
  ret i32 %.0.lcssa
}